; Function Attrs: nounwind uwtable
define ptr @Gia_ManUpdateExtraAig2(ptr noundef %0, ptr noundef %1, ptr noundef readonly captures(none) %2) local_unnamed_addr #0 {
  %4 = tail call i32 @Tim_ManPiNum(ptr noundef %0) #20
  %5 = tail call noalias dereferenceable_or_null(16) ptr @malloc(i64 noundef 16) #22
  %6 = getelementptr inbounds nuw i8, ptr %5, i64 4
  store i32 0, ptr %6, align 4, !tbaa !29
  store i32 100, ptr %5, align 8, !tbaa !55
  %7 = tail call noalias dereferenceable_or_null(400) ptr @malloc(i64 noundef 400) #22
  %8 = getelementptr inbounds nuw i8, ptr %5, i64 8
  store ptr %7, ptr %8, align 8, !tbaa !32
  %9 = getelementptr i8, ptr %2, i64 4
  %.val23 = load i32, ptr %9, align 4, !tbaa !29
  %10 = icmp sgt i32 %.val23, 0
  br i1 %10, label %.lr.ph26, label %.critedge

.lr.ph26:                                         ; preds = %3
  %11 = getelementptr i8, ptr %2, i64 8
  br label %12

12:                                               ; preds = %.lr.ph26, %._crit_edge
  %.pre.i31 = phi ptr [ %7, %.lr.ph26 ], [ %.pre.i28, %._crit_edge ]
  %indvars.iv = phi i64 [ 0, %.lr.ph26 ], [ %indvars.iv.next, %._crit_edge ]
  %.val21 = load ptr, ptr %11, align 8, !tbaa !32
  %13 = getelementptr inbounds nuw i32, ptr %.val21, i64 %indvars.iv
  %14 = load i32, ptr %13, align 4, !tbaa !33
  %15 = tail call i32 @Tim_ManBoxOutputFirst(ptr noundef %0, i32 noundef %14) #20
  %16 = sub i32 %15, %4
  %17 = tail call i32 @Tim_ManBoxOutputNum(ptr noundef %0, i32 noundef %14) #20
  %18 = icmp sgt i32 %17, 0
  br i1 %18, label %.lr.ph, label %._crit_edge

.lr.ph:                                           ; preds = %12, %Vec_IntPush.exit
  %19 = phi ptr [ %.pre.i29, %Vec_IntPush.exit ], [ %.pre.i31, %12 ]
  %.02022 = phi i32 [ %43, %Vec_IntPush.exit ], [ 0, %12 ]
  %20 = add nsw i32 %16, %.02022
  %21 = load i32, ptr %6, align 4, !tbaa !29
  %22 = load i32, ptr %5, align 8, !tbaa !55
  %23 = icmp eq i32 %21, %22
  br i1 %23, label %24, label %Vec_IntPush.exit

24:                                               ; preds = %.lr.ph
  %25 = icmp slt i32 %21, 16
  br i1 %25, label %26, label %31

26:                                               ; preds = %24
  %.not9.i.i = icmp eq ptr %19, null
  br i1 %.not9.i.i, label %29, label %27

27:                                               ; preds = %26
  %28 = tail call dereferenceable_or_null(64) ptr @realloc(ptr noundef nonnull %19, i64 noundef 64) #23
  br label %Vec_IntPush.exit.sink.split

29:                                               ; preds = %26
  %30 = tail call noalias dereferenceable_or_null(64) ptr @malloc(i64 noundef 64) #22
  br label %Vec_IntPush.exit.sink.split

31:                                               ; preds = %24
  %32 = shl nuw nsw i32 %21, 1
  %.not9.i9.i = icmp eq ptr %19, null
  %33 = zext nneg i32 %32 to i64
  %34 = shl nuw nsw i64 %33, 2
  br i1 %.not9.i9.i, label %37, label %35

35:                                               ; preds = %31
  %36 = tail call ptr @realloc(ptr noundef nonnull %19, i64 noundef %34) #23
  br label %Vec_IntPush.exit.sink.split

37:                                               ; preds = %31
  %38 = tail call noalias ptr @malloc(i64 noundef %34) #22
  br label %Vec_IntPush.exit.sink.split

Vec_IntPush.exit.sink.split:                      ; preds = %35, %37, %27, %29
  %.sink32 = phi ptr [ %28, %27 ], [ %30, %29 ], [ %36, %35 ], [ %38, %37 ]
  %.sink = phi i32 [ 16, %27 ], [ 16, %29 ], [ %32, %35 ], [ %32, %37 ]
  store ptr %.sink32, ptr %8, align 8, !tbaa !32
  store i32 %.sink, ptr %5, align 8, !tbaa !55
  br label %Vec_IntPush.exit

Vec_IntPush.exit:                                 ; preds = %Vec_IntPush.exit.sink.split, %.lr.ph
  %.pre.i29 = phi ptr [ %19, %.lr.ph ], [ %.sink32, %Vec_IntPush.exit.sink.split ]
  %39 = load i32, ptr %6, align 4, !tbaa !29
  %40 = add nsw i32 %39, 1
  store i32 %40, ptr %6, align 4, !tbaa !29
  %41 = sext i32 %39 to i64
  %42 = getelementptr inbounds i32, ptr %.pre.i29, i64 %41
  store i32 %20, ptr %42, align 4, !tbaa !33
  %43 = add nuw nsw i32 %.02022, 1
  %44 = tail call i32 @Tim_ManBoxOutputNum(ptr noundef %0, i32 noundef %14) #20
  %45 = icmp slt i32 %43, %44
  br i1 %45, label %.lr.ph, label %._crit_edge, !llvm.loop !98

._crit_edge:                                      ; preds = %Vec_IntPush.exit, %12
  %.pre.i28 = phi ptr [ %.pre.i31, %12 ], [ %.pre.i29, %Vec_IntPush.exit ]
  %indvars.iv.next = add nuw nsw i64 %indvars.iv, 1
  %.val = load i32, ptr %9, align 4, !tbaa !29
  %46 = sext i32 %.val to i64
  %47 = icmp slt i64 %indvars.iv.next, %46
  br i1 %47, label %12, label %.critedge, !llvm.loop !99

.critedge:                                        ; preds = %._crit_edge, %3
  %48 = tail call ptr @Gia_ManDupSelectedOutputs(ptr noundef %1, ptr noundef nonnull %5) #20
  %49 = load ptr, ptr %8, align 8, !tbaa !32
  %.not.i = icmp eq ptr %49, null
  br i1 %.not.i, label %Vec_IntFree.exit, label %50

50:                                               ; preds = %.critedge
  tail call void @free(ptr noundef nonnull %49) #20
  br label %Vec_IntFree.exit

Vec_IntFree.exit:                                 ; preds = %.critedge, %50
  tail call void @free(ptr noundef nonnull %5) #20
  ret ptr %48
}